target datalayout = "e-m:e-p270:32:32-p271:32:32-p272:64:64-i64:64-i128:128-f80:128-n8:16:32:64-S128"
target triple = "x86_64-unknown-linux-gnu"

%class.btRigidBody = type { %class.btCollisionObject.base, %class.btMatrix3x3, %class.btVector3, %class.btVector3, float, %class.btVector3, %class.btVector3, %class.btVector3, %class.btVector3, %class.btVector3, %class.btVector3, float, float, i8, float, float, float, float, float, float, ptr, %class.btAlignedObjectArray.0, i32, i32, %class.btVector3, %class.btVector3, %class.btVector3, %class.btVector3, %class.btVector3, %class.btVector3, i32, i32 }
%class.btCollisionObject.base = type <{ ptr, %class.btTransform, %class.btTransform, %class.btVector3, %class.btVector3, %class.btVector3, i32, float, ptr, ptr, ptr, ptr, i32, i32, i32, i32, i32, float, float, float, float, float, float, float, i32, [4 x i8], ptr, i32, i32, i32, float, float, float, i32, [4 x i8], %class.btAlignedObjectArray, i32, %class.btVector3 }>
%class.btTransform = type { %class.btMatrix3x3, %class.btVector3 }
%class.btAlignedObjectArray = type <{ %class.btAlignedAllocator, [3 x i8], i32, i32, [4 x i8], ptr, i8, [7 x i8] }>
%class.btAlignedAllocator = type { i8 }
%class.btMatrix3x3 = type { [3 x %class.btVector3] }
%class.btAlignedObjectArray.0 = type <{ %class.btAlignedAllocator.1, [3 x i8], i32, i32, [4 x i8], ptr, i8, [7 x i8] }>
%class.btAlignedAllocator.1 = type { i8 }
%class.btVector3 = type { [4 x float] }

; Function Attrs: mustprogress nounwind uwtable
define linkonce_odr dso_local noundef nonnull align 4 dereferenceable(4) ptr @_Z9btClampedIfERKT_S2_S2_S2_(ptr noundef nonnull align 4 dereferenceable(4) %a, ptr noundef nonnull align 4 dereferenceable(4) %lb, ptr noundef nonnull align 4 dereferenceable(4) %ub) #1 comdat {
entry:
  %a.addr = alloca ptr, align 8
  %lb.addr = alloca ptr, align 8
  %ub.addr = alloca ptr, align 8
  store ptr %a, ptr %a.addr, align 8
  store ptr %lb, ptr %lb.addr, align 8
  store ptr %ub, ptr %ub.addr, align 8
  %0 = load ptr, ptr %a.addr, align 8
  %1 = load float, ptr %0, align 4
  %2 = load ptr, ptr %lb.addr, align 8
  %3 = load float, ptr %2, align 4
  %cmp = fcmp olt float %1, %3
  br i1 %cmp, label %cond.true, label %cond.false

cond.true:                                        ; preds = %entry
  %4 = load ptr, ptr %lb.addr, align 8
  br label %cond.end4

cond.false:                                       ; preds = %entry
  %5 = load ptr, ptr %ub.addr, align 8
  %6 = load float, ptr %5, align 4
  %7 = load ptr, ptr %a.addr, align 8
  %8 = load float, ptr %7, align 4
  %cmp1 = fcmp olt float %6, %8
  br i1 %cmp1, label %cond.true2, label %cond.false3

cond.true2:                                       ; preds = %cond.false
  %9 = load ptr, ptr %ub.addr, align 8
  br label %cond.end

cond.false3:                                      ; preds = %cond.false
  %10 = load ptr, ptr %a.addr, align 8
  br label %cond.end

cond.end:                                         ; preds = %cond.false3, %cond.true2
  %cond-lvalue = phi ptr [ %9, %cond.true2 ], [ %10, %cond.false3 ]
  br label %cond.end4

cond.end4:                                        ; preds = %cond.end, %cond.true
  %cond-lvalue5 = phi ptr [ %4, %cond.true ], [ %cond-lvalue, %cond.end ]
  ret ptr %cond-lvalue5
}

; Function Attrs: mustprogress uwtable
define dso_local void @_ZN11btRigidBody10setDampingEff(ptr noundef nonnull align 8 dereferenceable(744) %this, float noundef %lin_damping, float noundef %ang_damping) #2 align 2 {
entry:
  %this.addr = alloca ptr, align 8
  %lin_damping.addr = alloca float, align 4
  %ang_damping.addr = alloca float, align 4
  %ref.tmp = alloca float, align 4
  %ref.tmp2 = alloca float, align 4
  %ref.tmp3 = alloca float, align 4
  %ref.tmp4 = alloca float, align 4
  store ptr %this, ptr %this.addr, align 8
  store float %lin_damping, ptr %lin_damping.addr, align 4
  store float %ang_damping, ptr %ang_damping.addr, align 4
  %this1 = load ptr, ptr %this.addr, align 8
  store float 0.000000e+00, ptr %ref.tmp, align 4
  store float 1.000000e+00, ptr %ref.tmp2, align 4
  %call = call noundef nonnull align 4 dereferenceable(4) ptr @_Z9btClampedIfERKT_S2_S2_S2_(ptr noundef nonnull align 4 dereferenceable(4) %lin_damping.addr, ptr noundef nonnull align 4 dereferenceable(4) %ref.tmp, ptr noundef nonnull align 4 dereferenceable(4) %ref.tmp2)
  %0 = load float, ptr %call, align 4
  %m_linearDamping = getelementptr inbounds %class.btRigidBody, ptr %this1, i32 0, i32 11
  store float %0, ptr %m_linearDamping, align 8
  store float 0.000000e+00, ptr %ref.tmp3, align 4
  store float 1.000000e+00, ptr %ref.tmp4, align 4
  %call5 = call noundef nonnull align 4 dereferenceable(4) ptr @_Z9btClampedIfERKT_S2_S2_S2_(ptr noundef nonnull align 4 dereferenceable(4) %ang_damping.addr, ptr noundef nonnull align 4 dereferenceable(4) %ref.tmp3, ptr noundef nonnull align 4 dereferenceable(4) %ref.tmp4)
  %1 = load float, ptr %call5, align 4
  %m_angularDamping = getelementptr inbounds %class.btRigidBody, ptr %this1, i32 0, i32 12
  store float %1, ptr %m_angularDamping, align 4
  ret void
}