; Function Attrs: mustprogress nofree norecurse nosync nounwind willreturn memory(argmem: write) uwtable
define dso_local void @_ZN11btRigidBody10setDampingEff(ptr nocapture noundef nonnull writeonly align 8 dereferenceable(744) %this, float noundef %lin_damping, float noundef %ang_damping) local_unnamed_addr #5 align 2 {
entry:
  %0 = insertelement <2 x float> poison, float %lin_damping, i64 0
  %1 = insertelement <2 x float> %0, float %ang_damping, i64 1
  %2 = fcmp olt <2 x float> %1, zeroinitializer
  %3 = fcmp ogt <2 x float> %1, <float 1.000000e+00, float 1.000000e+00>
  %m_linearDamping = getelementptr inbounds i8, ptr %this, i64 552
  %4 = select <2 x i1> %3, <2 x float> <float 1.000000e+00, float 1.000000e+00>, <2 x float> %1
  %5 = select <2 x i1> %2, <2 x float> zeroinitializer, <2 x float> %4
  store <2 x float> %5, ptr %m_linearDamping, align 8
  ret void
}